; ModuleID = 'source-C-CXX/61/2424.cpp'
source_filename = "source-C-CXX/61/2424.cpp"
target datalayout = "e-m:e-p270:32:32-p271:32:32-p272:64:64-i64:64-f80:128-n8:16:32:64-S128"
target triple = "x86_64-pc-linux-gnu"

%"class.std::ios_base::Init" = type { i8 }
%"class.std::basic_istream" = type { i32 (...)**, i64, %"class.std::basic_ios" }
%"class.std::basic_ios" = type { %"class.std::ios_base", %"class.std::basic_ostream"*, i8, i8, %"class.std::basic_streambuf"*, %"class.std::ctype"*, %"class.std::num_put"*, %"class.std::num_get"* }
%"class.std::ios_base" = type { i32 (...)**, i64, i64, i32, i32, i32, %"struct.std::ios_base::_Callback_list"*, %"struct.std::ios_base::_Words", [8 x %"struct.std::ios_base::_Words"], i32, %"struct.std::ios_base::_Words"*, %"class.std::locale" }
%"struct.std::ios_base::_Callback_list" = type { %"struct.std::ios_base::_Callback_list"*, void (i32, %"class.std::ios_base"*, i32)*, i32, i32 }
%"struct.std::ios_base::_Words" = type { i8*, i64 }
%"class.std::locale" = type { %"class.std::locale::_Impl"* }
%"class.std::locale::_Impl" = type { i32, %"class.std::locale::facet"**, i64, %"class.std::locale::facet"**, i8** }
%"class.std::locale::facet" = type <{ i32 (...)**, i32, [4 x i8] }>
%"class.std::basic_ostream" = type { i32 (...)**, %"class.std::basic_ios" }
%"class.std::basic_streambuf" = type { i32 (...)**, i8*, i8*, i8*, i8*, i8*, i8*, %"class.std::locale" }
%"class.std::ctype" = type <{ %"class.std::locale::facet.base", [4 x i8], %struct.__locale_struct*, i8, [7 x i8], i32*, i32*, i16*, i8, [256 x i8], [256 x i8], i8, [6 x i8] }>
%"class.std::locale::facet.base" = type <{ i32 (...)**, i32 }>
%struct.__locale_struct = type { [13 x %struct.__locale_data*], i16*, i32*, i32*, [13 x i8*] }
%struct.__locale_data = type opaque
%"class.std::num_put" = type { %"class.std::locale::facet.base", [4 x i8] }
%"class.std::num_get" = type { %"class.std::locale::facet.base", [4 x i8] }

@_ZStL8__ioinit = internal global %"class.std::ios_base::Init" zeroinitializer, align 1
@__dso_handle = external hidden global i8
@_ZSt3cin = external global %"class.std::basic_istream", align 8
@_ZSt4cout = external global %"class.std::basic_ostream", align 8
@llvm.global_ctors = appending global [1 x { i32, void ()*, i8* }] [{ i32, void ()*, i8* } { i32 65535, void ()* @_GLOBAL__sub_I_2424.cpp, i8* null }]

declare void @_ZNSt8ios_base4InitC1Ev(%"class.std::ios_base::Init"* nonnull align 1 dereferenceable(1)) unnamed_addr #0

; Function Attrs: nounwind
declare void @_ZNSt8ios_base4InitD1Ev(%"class.std::ios_base::Init"* nonnull align 1 dereferenceable(1)) unnamed_addr #1

; Function Attrs: nofree nounwind
declare i32 @__cxa_atexit(void (i8*)*, i8*, i8*) local_unnamed_addr #2

; Function Attrs: mustprogress norecurse sspstrong uwtable
define dso_local i32 @main() local_unnamed_addr #3 {
  %1 = alloca i8, align 1
  %2 = alloca [100 x i8], align 16
  %3 = getelementptr inbounds [100 x i8], [100 x i8]* %2, i64 0, i64 0
  call void @llvm.lifetime.start.p0i8(i64 100, i8* nonnull %3) #6
  %4 = call nonnull align 8 dereferenceable(16) %"class.std::basic_istream"* @_ZNSi3getEPclc(%"class.std::basic_istream"* nonnull align 8 dereferenceable(16) @_ZSt3cin, i8* nonnull %3, i64 100, i8 signext 10)
  br label %5

5:                                                ; preds = %0, %120
  %6 = phi i32 [ 0, %0 ], [ %121, %120 ]
  br label %10

7:                                                ; preds = %120
  %8 = load i8, i8* %3, align 16, !tbaa !5
  %9 = icmp eq i8 %8, 0
  br i1 %9, label %131, label %123

10:                                               ; preds = %5, %117
  %11 = phi i64 [ 0, %5 ], [ %21, %117 ]
  %12 = phi i64 [ 1, %5 ], [ %118, %117 ]
  %13 = sub nsw i64 68, %11
  %14 = lshr i64 %13, 5
  %15 = add nuw nsw i64 %14, 1
  %16 = sub nsw i64 100, %11
  %17 = sub nsw i64 100, %11
  %18 = getelementptr inbounds [100 x i8], [100 x i8]* %2, i64 0, i64 %11
  %19 = load i8, i8* %18, align 1, !tbaa !5
  %20 = icmp eq i8 %19, 32
  %21 = add nuw nsw i64 %11, 1
  br i1 %20, label %22, label %117

22:                                               ; preds = %10
  %23 = getelementptr inbounds [100 x i8], [100 x i8]* %2, i64 0, i64 %21
  %24 = load i8, i8* %23, align 1, !tbaa !5
  %25 = icmp eq i8 %24, 32
  %26 = icmp ult i64 %11, 100
  %27 = select i1 %25, i1 %26, i1 false
  br i1 %27, label %28, label %117

28:                                               ; preds = %22
  %29 = icmp ult i64 %17, 8
  br i1 %29, label %108, label %30

30:                                               ; preds = %28
  %31 = icmp ult i64 %17, 32
  br i1 %31, label %91, label %32

32:                                               ; preds = %30
  %33 = and i64 %17, -32
  %34 = and i64 %15, 1
  %35 = icmp ult i64 %13, 32
  br i1 %35, label %69, label %36

36:                                               ; preds = %32
  %37 = and i64 %15, 1152921504606846974
  br label %38

38:                                               ; preds = %38, %36
  %39 = phi i64 [ 0, %36 ], [ %66, %38 ]
  %40 = phi i64 [ %37, %36 ], [ %67, %38 ]
  %41 = add i64 %12, %39
  %42 = add nuw nsw i64 %41, 1
  %43 = getelementptr inbounds [100 x i8], [100 x i8]* %2, i64 0, i64 %42
  %44 = bitcast i8* %43 to <16 x i8>*
  %45 = load <16 x i8>, <16 x i8>* %44, align 1, !tbaa !5
  %46 = getelementptr inbounds i8, i8* %43, i64 16
  %47 = bitcast i8* %46 to <16 x i8>*
  %48 = load <16 x i8>, <16 x i8>* %47, align 1, !tbaa !5
  %49 = getelementptr inbounds [100 x i8], [100 x i8]* %2, i64 0, i64 %41
  %50 = bitcast i8* %49 to <16 x i8>*
  store <16 x i8> %45, <16 x i8>* %50, align 1, !tbaa !5
  %51 = getelementptr inbounds i8, i8* %49, i64 16
  %52 = bitcast i8* %51 to <16 x i8>*
  store <16 x i8> %48, <16 x i8>* %52, align 1, !tbaa !5
  %53 = or i64 %39, 32
  %54 = add i64 %12, %53
  %55 = add nuw nsw i64 %54, 1
  %56 = getelementptr inbounds [100 x i8], [100 x i8]* %2, i64 0, i64 %55
  %57 = bitcast i8* %56 to <16 x i8>*
  %58 = load <16 x i8>, <16 x i8>* %57, align 1, !tbaa !5
  %59 = getelementptr inbounds i8, i8* %56, i64 16
  %60 = bitcast i8* %59 to <16 x i8>*
  %61 = load <16 x i8>, <16 x i8>* %60, align 1, !tbaa !5
  %62 = getelementptr inbounds [100 x i8], [100 x i8]* %2, i64 0, i64 %54
  %63 = bitcast i8* %62 to <16 x i8>*
  store <16 x i8> %58, <16 x i8>* %63, align 1, !tbaa !5
  %64 = getelementptr inbounds i8, i8* %62, i64 16
  %65 = bitcast i8* %64 to <16 x i8>*
  store <16 x i8> %61, <16 x i8>* %65, align 1, !tbaa !5
  %66 = add nuw i64 %39, 64
  %67 = add i64 %40, -2
  %68 = icmp eq i64 %67, 0
  br i1 %68, label %69, label %38, !llvm.loop !8

69:                                               ; preds = %38, %32
  %70 = phi i64 [ 0, %32 ], [ %66, %38 ]
  %71 = icmp eq i64 %34, 0
  br i1 %71, label %85, label %72

72:                                               ; preds = %69
  %73 = add i64 %12, %70
  %74 = add nuw nsw i64 %73, 1
  %75 = getelementptr inbounds [100 x i8], [100 x i8]* %2, i64 0, i64 %74
  %76 = bitcast i8* %75 to <16 x i8>*
  %77 = load <16 x i8>, <16 x i8>* %76, align 1, !tbaa !5
  %78 = getelementptr inbounds i8, i8* %75, i64 16
  %79 = bitcast i8* %78 to <16 x i8>*
  %80 = load <16 x i8>, <16 x i8>* %79, align 1, !tbaa !5
  %81 = getelementptr inbounds [100 x i8], [100 x i8]* %2, i64 0, i64 %73
  %82 = bitcast i8* %81 to <16 x i8>*
  store <16 x i8> %77, <16 x i8>* %82, align 1, !tbaa !5
  %83 = getelementptr inbounds i8, i8* %81, i64 16
  %84 = bitcast i8* %83 to <16 x i8>*
  store <16 x i8> %80, <16 x i8>* %84, align 1, !tbaa !5
  br label %85

85:                                               ; preds = %69, %72
  %86 = icmp eq i64 %17, %33
  br i1 %86, label %117, label %87

87:                                               ; preds = %85
  %88 = add i64 %12, %33
  %89 = and i64 %17, 24
  %90 = icmp eq i64 %89, 0
  br i1 %90, label %108, label %91

91:                                               ; preds = %30, %87
  %92 = phi i64 [ %33, %87 ], [ 0, %30 ]
  %93 = and i64 %16, -8
  %94 = add i64 %12, %93
  br label %95

95:                                               ; preds = %95, %91
  %96 = phi i64 [ %92, %91 ], [ %104, %95 ]
  %97 = add i64 %12, %96
  %98 = add nuw nsw i64 %97, 1
  %99 = getelementptr inbounds [100 x i8], [100 x i8]* %2, i64 0, i64 %98
  %100 = bitcast i8* %99 to <8 x i8>*
  %101 = load <8 x i8>, <8 x i8>* %100, align 1, !tbaa !5
  %102 = getelementptr inbounds [100 x i8], [100 x i8]* %2, i64 0, i64 %97
  %103 = bitcast i8* %102 to <8 x i8>*
  store <8 x i8> %101, <8 x i8>* %103, align 1, !tbaa !5
  %104 = add nuw i64 %96, 8
  %105 = icmp eq i64 %104, %93
  br i1 %105, label %106, label %95, !llvm.loop !11

106:                                              ; preds = %95
  %107 = icmp eq i64 %16, %93
  br i1 %107, label %117, label %108

108:                                              ; preds = %28, %87, %106
  %109 = phi i64 [ %12, %28 ], [ %88, %87 ], [ %94, %106 ]
  br label %110

110:                                              ; preds = %108, %110
  %111 = phi i64 [ %112, %110 ], [ %109, %108 ]
  %112 = add nuw nsw i64 %111, 1
  %113 = getelementptr inbounds [100 x i8], [100 x i8]* %2, i64 0, i64 %112
  %114 = load i8, i8* %113, align 1, !tbaa !5
  %115 = getelementptr inbounds [100 x i8], [100 x i8]* %2, i64 0, i64 %111
  store i8 %114, i8* %115, align 1, !tbaa !5
  %116 = icmp eq i64 %112, 101
  br i1 %116, label %117, label %110, !llvm.loop !12

117:                                              ; preds = %110, %85, %106, %10, %22
  %118 = add nuw nsw i64 %12, 1
  %119 = icmp eq i64 %21, 101
  br i1 %119, label %120, label %10, !llvm.loop !14

120:                                              ; preds = %117
  %121 = add nuw nsw i32 %6, 1
  %122 = icmp eq i32 %121, 101
  br i1 %122, label %7, label %5, !llvm.loop !15

123:                                              ; preds = %7, %123
  %124 = phi i64 [ %127, %123 ], [ 0, %7 ]
  %125 = phi i8 [ %129, %123 ], [ %8, %7 ]
  call void @llvm.lifetime.start.p0i8(i64 1, i8* nonnull %1)
  store i8 %125, i8* %1, align 1, !tbaa !5
  %126 = call nonnull align 8 dereferenceable(8) %"class.std::basic_ostream"* @_ZSt16__ostream_insertIcSt11char_traitsIcEERSt13basic_ostreamIT_T0_ES6_PKS3_l(%"class.std::basic_ostream"* nonnull align 8 dereferenceable(8) @_ZSt4cout, i8* nonnull %1, i64 1)
  call void @llvm.lifetime.end.p0i8(i64 1, i8* nonnull %1)
  %127 = add nuw i64 %124, 1
  %128 = getelementptr inbounds [100 x i8], [100 x i8]* %2, i64 0, i64 %127
  %129 = load i8, i8* %128, align 1, !tbaa !5
  %130 = icmp eq i8 %129, 0
  br i1 %130, label %131, label %123, !llvm.loop !16

131:                                              ; preds = %123, %7
  call void @llvm.lifetime.end.p0i8(i64 100, i8* nonnull %3) #6
  ret i32 0
}

; Function Attrs: argmemonly mustprogress nofree nosync nounwind willreturn
declare void @llvm.lifetime.start.p0i8(i64 immarg, i8* nocapture) #4

declare nonnull align 8 dereferenceable(16) %"class.std::basic_istream"* @_ZNSi3getEPclc(%"class.std::basic_istream"* nonnull align 8 dereferenceable(16), i8*, i64, i8 signext) local_unnamed_addr #0

; Function Attrs: argmemonly mustprogress nofree nosync nounwind willreturn
declare void @llvm.lifetime.end.p0i8(i64 immarg, i8* nocapture) #4

declare nonnull align 8 dereferenceable(8) %"class.std::basic_ostream"* @_ZSt16__ostream_insertIcSt11char_traitsIcEERSt13basic_ostreamIT_T0_ES6_PKS3_l(%"class.std::basic_ostream"* nonnull align 8 dereferenceable(8), i8*, i64) local_unnamed_addr #0

; Function Attrs: sspstrong uwtable
define internal void @_GLOBAL__sub_I_2424.cpp() #5 section ".text.startup" {
  tail call void @_ZNSt8ios_base4InitC1Ev(%"class.std::ios_base::Init"* nonnull align 1 dereferenceable(1) @_ZStL8__ioinit)
  %1 = tail call i32 @__cxa_atexit(void (i8*)* bitcast (void (%"class.std::ios_base::Init"*)* @_ZNSt8ios_base4InitD1Ev to void (i8*)*), i8* getelementptr inbounds (%"class.std::ios_base::Init", %"class.std::ios_base::Init"* @_ZStL8__ioinit, i64 0, i32 0), i8* nonnull @__dso_handle) #6
  ret void
}


!llvm.module.flags = !{!0, !1, !2, !3}
!llvm.ident = !{!4}

!0 = !{i32 1, !"wchar_size", i32 4}
!1 = !{i32 7, !"PIC Level", i32 2}
!2 = !{i32 7, !"PIE Level", i32 2}
!3 = !{i32 7, !"uwtable", i32 1}
!4 = !{!"clang version 13.0.0"}
!5 = !{!6, !6, i64 0}
!6 = !{!"omnipotent char", !7, i64 0}
!7 = !{!"Simple C++ TBAA"}
!8 = distinct !{!8, !9, !10}
!9 = !{!"llvm.loop.mustprogress"}
!10 = !{!"llvm.loop.isvectorized", i32 1}
!11 = distinct !{!11, !9, !10}
!12 = distinct !{!12, !9, !13, !10}
!13 = !{!"llvm.loop.unroll.runtime.disable"}
!14 = distinct !{!14, !9}
!15 = distinct !{!15, !9}
!16 = distinct !{!16, !9}
